target datalayout = "e-m:e-p270:32:32-p271:32:32-p272:64:64-i64:64-i128:128-f80:128-n8:16:32:64-S128"
target triple = "x86_64-pc-linux-gnu"

%struct.PostingItem = type { %struct.BlockIdData, %struct.ItemPointerData }
%struct.BlockIdData = type { i16, i16 }
%struct.ItemPointerData = type { %struct.BlockIdData, i16 }
%struct.PageHeaderData = type { %struct.PageXLogRecPtr, i16, i16, i16, i16, i16, i16, i32, [0 x %struct.ItemIdData] }
%struct.PageXLogRecPtr = type { i32, i32 }
%struct.ItemIdData = type { i32 }
%struct.GinPageOpaqueData = type { i32, i16, i16 }

; Function Attrs: inlinehint nounwind uwtable
define internal i32 @BlockIdGetBlockNumber(ptr noundef %0) #2 {
  %2 = alloca ptr, align 8
  store ptr %0, ptr %2, align 8
  %3 = load ptr, ptr %2, align 8
  %4 = getelementptr inbounds nuw %struct.BlockIdData, ptr %3, i32 0, i32 0
  %5 = load i16, ptr %4, align 2
  %6 = zext i16 %5 to i32
  %7 = shl i32 %6, 16
  %8 = load ptr, ptr %2, align 8
  %9 = getelementptr inbounds nuw %struct.BlockIdData, ptr %8, i32 0, i32 1
  %10 = load i16, ptr %9, align 2
  %11 = zext i16 %10 to i32
  %12 = or i32 %7, %11
  ret i32 %12
}

; Function Attrs: inlinehint nounwind uwtable
define internal ptr @PageGetContents(ptr noundef %0) #2 {
  %2 = alloca ptr, align 8
  store ptr %0, ptr %2, align 8
  %3 = load ptr, ptr %2, align 8
  %4 = getelementptr inbounds nuw i8, ptr %3, i64 24
  ret ptr %4
}

; Function Attrs: inlinehint nounwind uwtable
define internal void @PageValidateSpecialPointer(ptr noundef %0) #2 {
  %2 = alloca ptr, align 8
  store ptr %0, ptr %2, align 8
  ret void
}

; Function Attrs: nounwind uwtable
define internal zeroext i16 @dataFindChildPtr(ptr noundef %0, ptr noundef %1, i32 noundef %2, i16 noundef zeroext %3) #0 {
  %5 = alloca i16, align 2
  %6 = alloca ptr, align 8
  %7 = alloca ptr, align 8
  %8 = alloca i32, align 4
  %9 = alloca i16, align 2
  %10 = alloca i16, align 2
  %11 = alloca i16, align 2
  %12 = alloca ptr, align 8
  %13 = alloca i32, align 4
  store ptr %0, ptr %6, align 8
  store ptr %1, ptr %7, align 8
  store i32 %2, ptr %8, align 4
  store i16 %3, ptr %9, align 2
  call void @llvm.lifetime.start.p0(i64 2, ptr %10) #7
  call void @llvm.lifetime.start.p0(i64 2, ptr %11) #7
  %14 = load ptr, ptr %7, align 8
  call void @PageValidateSpecialPointer(ptr noundef %14)
  %15 = load ptr, ptr %7, align 8
  %16 = load ptr, ptr %7, align 8
  %17 = getelementptr inbounds nuw %struct.PageHeaderData, ptr %16, i32 0, i32 5
  %18 = load i16, ptr %17, align 4
  %19 = zext i16 %18 to i32
  %20 = sext i32 %19 to i64
  %21 = getelementptr inbounds i8, ptr %15, i64 %20
  %22 = getelementptr inbounds nuw %struct.GinPageOpaqueData, ptr %21, i32 0, i32 1
  %23 = load i16, ptr %22, align 4
  store i16 %23, ptr %11, align 2
  call void @llvm.lifetime.start.p0(i64 8, ptr %12) #7
  %24 = load i16, ptr %9, align 2
  %25 = zext i16 %24 to i32
  %26 = icmp sge i32 %25, 1
  br i1 %26, label %27, label %87

27:                                               ; preds = %4
  %28 = load i16, ptr %9, align 2
  %29 = zext i16 %28 to i32
  %30 = load i16, ptr %11, align 2
  %31 = zext i16 %30 to i32
  %32 = icmp sle i32 %29, %31
  br i1 %32, label %33, label %87

33:                                               ; preds = %27
  %34 = load ptr, ptr %7, align 8
  %35 = call ptr @PageGetContents(ptr noundef %34)
  %36 = getelementptr inbounds nuw i8, ptr %35, i64 8
  %37 = load i16, ptr %9, align 2
  %38 = zext i16 %37 to i32
  %39 = sub i32 %38, 1
  %40 = sext i32 %39 to i64
  %41 = mul i64 %40, 10
  %42 = getelementptr inbounds nuw i8, ptr %36, i64 %41
  store ptr %42, ptr %12, align 8
  %43 = load ptr, ptr %12, align 8
  %44 = getelementptr inbounds nuw %struct.PostingItem, ptr %43, i32 0, i32 0
  %45 = call i32 @BlockIdGetBlockNumber(ptr noundef %44)
  %46 = load i32, ptr %8, align 4
  %47 = icmp eq i32 %45, %46
  br i1 %47, label %48, label %50

48:                                               ; preds = %33
  %49 = load i16, ptr %9, align 2
  store i16 %49, ptr %5, align 2
  store i32 1, ptr %13, align 4
  br label %116

50:                                               ; preds = %33
  %51 = load i16, ptr %9, align 2
  %52 = zext i16 %51 to i32
  %53 = add i32 %52, 1
  %54 = trunc i32 %53 to i16
  store i16 %54, ptr %10, align 2
  br label %55

55:                                               ; preds = %79, %50
  %56 = load i16, ptr %10, align 2
  %57 = zext i16 %56 to i32
  %58 = load i16, ptr %11, align 2
  %59 = zext i16 %58 to i32
  %60 = icmp sle i32 %57, %59
  br i1 %60, label %61, label %82

61:                                               ; preds = %55
  %62 = load ptr, ptr %7, align 8
  %63 = call ptr @PageGetContents(ptr noundef %62)
  %64 = getelementptr inbounds nuw i8, ptr %63, i64 8
  %65 = load i16, ptr %10, align 2
  %66 = zext i16 %65 to i32
  %67 = sub i32 %66, 1
  %68 = sext i32 %67 to i64
  %69 = mul i64 %68, 10
  %70 = getelementptr inbounds nuw i8, ptr %64, i64 %69
  store ptr %70, ptr %12, align 8
  %71 = load ptr, ptr %12, align 8
  %72 = getelementptr inbounds nuw %struct.PostingItem, ptr %71, i32 0, i32 0
  %73 = call i32 @BlockIdGetBlockNumber(ptr noundef %72)
  %74 = load i32, ptr %8, align 4
  %75 = icmp eq i32 %73, %74
  br i1 %75, label %76, label %78

76:                                               ; preds = %61
  %77 = load i16, ptr %10, align 2
  store i16 %77, ptr %5, align 2
  store i32 1, ptr %13, align 4
  br label %116

78:                                               ; preds = %61
  br label %79

79:                                               ; preds = %78
  %80 = load i16, ptr %10, align 2
  %81 = add i16 %80, 1
  store i16 %81, ptr %10, align 2
  br label %55, !llvm.loop !17

82:                                               ; preds = %55
  %83 = load i16, ptr %9, align 2
  %84 = zext i16 %83 to i32
  %85 = sub i32 %84, 1
  %86 = trunc i32 %85 to i16
  store i16 %86, ptr %11, align 2
  br label %87

87:                                               ; preds = %82, %27, %4
  store i16 1, ptr %10, align 2
  br label %88

88:                                               ; preds = %112, %87
  %89 = load i16, ptr %10, align 2
  %90 = zext i16 %89 to i32
  %91 = load i16, ptr %11, align 2
  %92 = zext i16 %91 to i32
  %93 = icmp sle i32 %90, %92
  br i1 %93, label %94, label %115

94:                                               ; preds = %88
  %95 = load ptr, ptr %7, align 8
  %96 = call ptr @PageGetContents(ptr noundef %95)
  %97 = getelementptr inbounds nuw i8, ptr %96, i64 8
  %98 = load i16, ptr %10, align 2
  %99 = zext i16 %98 to i32
  %100 = sub i32 %99, 1
  %101 = sext i32 %100 to i64
  %102 = mul i64 %101, 10
  %103 = getelementptr inbounds nuw i8, ptr %97, i64 %102
  store ptr %103, ptr %12, align 8
  %104 = load ptr, ptr %12, align 8
  %105 = getelementptr inbounds nuw %struct.PostingItem, ptr %104, i32 0, i32 0
  %106 = call i32 @BlockIdGetBlockNumber(ptr noundef %105)
  %107 = load i32, ptr %8, align 4
  %108 = icmp eq i32 %106, %107
  br i1 %108, label %109, label %111

109:                                              ; preds = %94
  %110 = load i16, ptr %10, align 2
  store i16 %110, ptr %5, align 2
  store i32 1, ptr %13, align 4
  br label %116

111:                                              ; preds = %94
  br label %112

112:                                              ; preds = %111
  %113 = load i16, ptr %10, align 2
  %114 = add i16 %113, 1
  store i16 %114, ptr %10, align 2
  br label %88, !llvm.loop !18

115:                                              ; preds = %88
  store i16 0, ptr %5, align 2
  store i32 1, ptr %13, align 4
  br label %116

116:                                              ; preds = %115, %109, %76, %48
  call void @llvm.lifetime.end.p0(i64 8, ptr %12) #7
  call void @llvm.lifetime.end.p0(i64 2, ptr %11) #7
  call void @llvm.lifetime.end.p0(i64 2, ptr %10) #7
  %117 = load i16, ptr %5, align 2
  ret i16 %117
}