; Function Attrs: nofree norecurse nosync nounwind memory(argmem: read) uwtable
define internal zeroext i16 @dataFindChildPtr(ptr readnone captures(none) %0, ptr noundef readonly captures(none) %1, i32 noundef %2, i16 noundef zeroext %3) #8 {
  %5 = getelementptr inbounds nuw i8, ptr %1, i64 16
  %6 = load i16, ptr %5, align 4
  %7 = zext i16 %6 to i64
  %8 = getelementptr inbounds nuw i8, ptr %1, i64 %7
  %9 = getelementptr inbounds nuw i8, ptr %8, i64 4
  %10 = load i16, ptr %9, align 4
  %11 = freeze i16 %10
  %12 = add i16 %3, -1
  %or.cond.not = icmp ult i16 %12, %11
  br i1 %or.cond.not, label %13, label %40

13:                                               ; preds = %4
  %14 = zext i16 %3 to i32
  %15 = getelementptr inbounds nuw i8, ptr %1, i64 32
  %16 = add nsw i32 %14, -1
  %17 = zext nneg i32 %16 to i64
  %18 = mul nuw nsw i64 %17, 10
  %19 = getelementptr inbounds nuw i8, ptr %15, i64 %18
  %.val42 = load i16, ptr %19, align 2
  %20 = getelementptr i8, ptr %19, i64 2
  %.val43 = load i16, ptr %20, align 2
  %21 = zext i16 %.val42 to i32
  %22 = shl nuw i32 %21, 16
  %23 = zext i16 %.val43 to i32
  %24 = or disjoint i32 %22, %23
  %25 = icmp eq i32 %24, %2
  br i1 %25, label %.loopexit, label %.preheader

.preheader:                                       ; preds = %13
  %26 = getelementptr i8, ptr %1, i64 22
  br label %27

27:                                               ; preds = %.preheader, %28
  %.029.in = phi i16 [ %.029, %28 ], [ %3, %.preheader ]
  %.029 = add i16 %.029.in, 1
  %.not37 = icmp ugt i16 %.029, %11
  br i1 %.not37, label %38, label %28

28:                                               ; preds = %27
  %29 = zext i16 %.029 to i64
  %30 = mul nuw nsw i64 %29, 10
  %31 = getelementptr i8, ptr %26, i64 %30
  %.val40 = load i16, ptr %31, align 2
  %32 = getelementptr i8, ptr %31, i64 2
  %.val41 = load i16, ptr %32, align 2
  %33 = zext i16 %.val40 to i32
  %34 = shl nuw i32 %33, 16
  %35 = zext i16 %.val41 to i32
  %36 = or disjoint i32 %34, %35
  %37 = icmp eq i32 %36, %2
  br i1 %37, label %.loopexit, label %27, !llvm.loop !15

38:                                               ; preds = %27
  %39 = trunc nuw i32 %16 to i16
  br label %40

40:                                               ; preds = %38, %4
  %.0 = phi i16 [ %39, %38 ], [ %11, %4 ]
  %.not3846 = icmp eq i16 %.0, 0
  br i1 %.not3846, label %.loopexit, label %.lr.ph

.lr.ph:                                           ; preds = %40
  %41 = getelementptr i8, ptr %1, i64 22
  br label %42

42:                                               ; preds = %.lr.ph, %52
  %.147 = phi i16 [ 1, %.lr.ph ], [ %53, %52 ]
  %43 = zext i16 %.147 to i64
  %44 = mul nuw nsw i64 %43, 10
  %45 = getelementptr i8, ptr %41, i64 %44
  %.val = load i16, ptr %45, align 2
  %46 = getelementptr i8, ptr %45, i64 2
  %.val39 = load i16, ptr %46, align 2
  %47 = zext i16 %.val to i32
  %48 = shl nuw i32 %47, 16
  %49 = zext i16 %.val39 to i32
  %50 = or disjoint i32 %48, %49
  %51 = icmp eq i32 %50, %2
  br i1 %51, label %.loopexit, label %52

52:                                               ; preds = %42
  %53 = add i16 %.147, 1
  %.not38 = icmp ugt i16 %53, %.0
  br i1 %.not38, label %.loopexit, label %42, !llvm.loop !16

.loopexit:                                        ; preds = %28, %42, %52, %40, %13
  %.030 = phi i16 [ %3, %13 ], [ 0, %40 ], [ %.147, %42 ], [ 0, %52 ], [ %.029, %28 ]
  ret i16 %.030
}